; ModuleID = '1/2184.c'
source_filename = "1/2184.c"
target datalayout = "e-m:e-p270:32:32-p271:32:32-p272:64:64-i64:64-f80:128-n8:16:32:64-S128"
target triple = "x86_64-pc-linux-gnu"

@sum = dso_local global i32 0, align 4
@.str = private unnamed_addr constant [3 x i8] c"%d\00", align 1
@.str.1 = private unnamed_addr constant [3 x i8] c"1\0A\00", align 1
@.str.2 = private unnamed_addr constant [4 x i8] c"%d\0A\00", align 1

; Function Attrs: noinline nounwind uwtable
define dso_local i32 @ispr(i32 %0) #0 {
  %2 = alloca i32, align 4
  %3 = alloca i32, align 4
  %4 = alloca i32, align 4
  %5 = alloca i32, align 4
  store i32 %0, i32* %3, align 4
  %6 = load i32, i32* %3, align 4
  %7 = sitofp i32 %6 to double
  %8 = fmul double %7, 1.000000e+00
  %9 = call double @sqrt(double %8) #3
  %10 = fadd double %9, 1.000000e+00
  %11 = fptosi double %10 to i32
  store i32 %11, i32* %4, align 4
  store i32 2, i32* %5, align 4
  br label %12

12:                                               ; preds = %23, %1
  %13 = load i32, i32* %5, align 4
  %14 = load i32, i32* %4, align 4
  %15 = icmp slt i32 %13, %14
  br i1 %15, label %16, label %26

16:                                               ; preds = %12
  %17 = load i32, i32* %3, align 4
  %18 = load i32, i32* %5, align 4
  %19 = srem i32 %17, %18
  %20 = icmp eq i32 %19, 0
  br i1 %20, label %21, label %22

21:                                               ; preds = %16
  store i32 0, i32* %2, align 4
  br label %27

22:                                               ; preds = %16
  br label %23

23:                                               ; preds = %22
  %24 = load i32, i32* %5, align 4
  %25 = add nsw i32 %24, 1
  store i32 %25, i32* %5, align 4
  br label %12

26:                                               ; preds = %12
  store i32 1, i32* %2, align 4
  br label %27

27:                                               ; preds = %26, %21
  %28 = load i32, i32* %2, align 4
  ret i32 %28
}

; Function Attrs: nounwind
declare dso_local double @sqrt(double) #1

; Function Attrs: noinline nounwind uwtable
define dso_local void @fun(i32 %0, i32 %1) #0 {
  %3 = alloca i32, align 4
  %4 = alloca i32, align 4
  store i32 %0, i32* %3, align 4
  store i32 %1, i32* %4, align 4
  %5 = load i32, i32* %3, align 4
  %6 = icmp eq i32 %5, 1
  br i1 %6, label %7, label %10

7:                                                ; preds = %2
  %8 = load i32, i32* @sum, align 4
  %9 = add nsw i32 %8, 1
  store i32 %9, i32* @sum, align 4
  br label %10

10:                                               ; preds = %7, %2
  br label %11

11:                                               ; preds = %25, %10
  %12 = load i32, i32* %4, align 4
  %13 = load i32, i32* %3, align 4
  %14 = icmp sle i32 %12, %13
  br i1 %14, label %15, label %28

15:                                               ; preds = %11
  %16 = load i32, i32* %3, align 4
  %17 = load i32, i32* %4, align 4
  %18 = srem i32 %16, %17
  %19 = icmp eq i32 %18, 0
  br i1 %19, label %20, label %25

20:                                               ; preds = %15
  %21 = load i32, i32* %3, align 4
  %22 = load i32, i32* %4, align 4
  %23 = sdiv i32 %21, %22
  %24 = load i32, i32* %4, align 4
  call void @fun(i32 %23, i32 %24)
  br label %25

25:                                               ; preds = %20, %15
  %26 = load i32, i32* %4, align 4
  %27 = add nsw i32 %26, 1
  store i32 %27, i32* %4, align 4
  br label %11

28:                                               ; preds = %11
  ret void
}

; Function Attrs: noinline nounwind uwtable
define dso_local i32 @main() #0 {
  %1 = alloca i32, align 4
  %2 = alloca i32, align 4
  %3 = alloca i32, align 4
  %4 = alloca i32, align 4
  %5 = alloca i32, align 4
  store i32 0, i32* %1, align 4
  %6 = call i32 (i8*, ...) @__isoc99_scanf(i8* getelementptr inbounds ([3 x i8], [3 x i8]* @.str, i64 0, i64 0), i32* %2)
  br label %7

7:                                                ; preds = %40, %16, %0
  %8 = load i32, i32* %2, align 4
  %9 = add nsw i32 %8, -1
  store i32 %9, i32* %2, align 4
  %10 = icmp ne i32 %8, 0
  br i1 %10, label %11, label %43

11:                                               ; preds = %7
  %12 = call i32 (i8*, ...) @__isoc99_scanf(i8* getelementptr inbounds ([3 x i8], [3 x i8]* @.str, i64 0, i64 0), i32* %3)
  %13 = load i32, i32* %3, align 4
  %14 = call i32 @ispr(i32 %13)
  %15 = icmp ne i32 %14, 0
  br i1 %15, label %16, label %18

16:                                               ; preds = %11
  %17 = call i32 (i8*, ...) @printf(i8* getelementptr inbounds ([3 x i8], [3 x i8]* @.str.1, i64 0, i64 0))
  br label %7

18:                                               ; preds = %11
  store i32 2, i32* %4, align 4
  store i32 1, i32* %5, align 4
  br label %19

19:                                               ; preds = %37, %18
  %20 = load i32, i32* %4, align 4
  %21 = load i32, i32* %3, align 4
  %22 = sdiv i32 %21, 2
  %23 = icmp sle i32 %20, %22
  br i1 %23, label %24, label %40

24:                                               ; preds = %19
  %25 = load i32, i32* %3, align 4
  %26 = load i32, i32* %4, align 4
  %27 = srem i32 %25, %26
  %28 = icmp eq i32 %27, 0
  br i1 %28, label %29, label %37

29:                                               ; preds = %24
  store i32 0, i32* @sum, align 4
  %30 = load i32, i32* %3, align 4
  %31 = load i32, i32* %4, align 4
  %32 = sdiv i32 %30, %31
  %33 = load i32, i32* %4, align 4
  call void @fun(i32 %32, i32 %33)
  %34 = load i32, i32* @sum, align 4
  %35 = load i32, i32* %5, align 4
  %36 = add nsw i32 %35, %34
  store i32 %36, i32* %5, align 4
  br label %37

37:                                               ; preds = %29, %24
  %38 = load i32, i32* %4, align 4
  %39 = add nsw i32 %38, 1
  store i32 %39, i32* %4, align 4
  br label %19

40:                                               ; preds = %19
  %41 = load i32, i32* %5, align 4
  %42 = call i32 (i8*, ...) @printf(i8* getelementptr inbounds ([4 x i8], [4 x i8]* @.str.2, i64 0, i64 0), i32 %41)
  br label %7

43:                                               ; preds = %7
  %44 = load i32, i32* %1, align 4
  ret i32 %44
}

declare dso_local i32 @__isoc99_scanf(i8*, ...) #2

declare dso_local i32 @printf(i8*, ...) #2


!llvm.module.flags = !{!0}
!llvm.ident = !{!1}

!0 = !{i32 1, !"wchar_size", i32 4}
!1 = !{!"clang version 10.0.0-4ubuntu1 "}
